target datalayout = "e-m:e-p270:32:32-p271:32:32-p272:64:64-i64:64-i128:128-f80:128-n8:16:32:64-S128"
target triple = "x86_64-pc-linux-gnu"

@stderr = external global ptr, align 8
@.str.8 = private unnamed_addr constant [2 x i8] c"?\00", align 1
@.str.9 = private unnamed_addr constant [21 x i8] c"ERROR in finalizer: \00", align 1

; Function Attrs: nounwind uwtable
define internal i32 @error_finalizer(ptr noundef %0) #0 {
  %2 = alloca ptr, align 8
  %3 = alloca ptr, align 8
  store ptr %0, ptr %2, align 8, !tbaa !4
  call void @llvm.lifetime.start.p0(i64 8, ptr %3) #9
  %4 = load ptr, ptr %2, align 8, !tbaa !4
  %5 = call ptr @lua_tolstring(ptr noundef %4, i32 noundef -1, ptr noundef null)
  store ptr %5, ptr %3, align 8, !tbaa !11
  %6 = load ptr, ptr @stderr, align 8, !tbaa !66
  %7 = call i32 @fputs(ptr noundef @.str.9, ptr noundef %6)
  %8 = load ptr, ptr %3, align 8, !tbaa !11
  %9 = icmp ne ptr %8, null
  br i1 %9, label %10, label %12

10:                                               ; preds = %1
  %11 = load ptr, ptr %3, align 8, !tbaa !11
  br label %13

12:                                               ; preds = %1
  br label %13

13:                                               ; preds = %12, %10
  %14 = phi ptr [ %11, %10 ], [ @.str.8, %12 ]
  %15 = load ptr, ptr @stderr, align 8, !tbaa !66
  %16 = call i32 @fputs(ptr noundef %14, ptr noundef %15)
  %17 = load ptr, ptr @stderr, align 8, !tbaa !66
  %18 = call i32 @fputc(i32 noundef 10, ptr noundef %17)
  %19 = load ptr, ptr @stderr, align 8, !tbaa !66
  %20 = call i32 @fflush(ptr noundef %19)
  call void @llvm.lifetime.end.p0(i64 8, ptr %3) #9
  ret i32 0
}